; Function Attrs: nounwind uwtable
define dso_local range(i32 -1, 2) i32 @hostset_delete_host(ptr noundef readonly captures(none) %0, ptr noundef %1) local_unnamed_addr #0 {
  %3 = load ptr, ptr %0, align 8
  %.not.i = icmp eq ptr %3, null
  br i1 %.not.i, label %hostlist_delete_host.exit, label %4

4:                                                ; preds = %2
  %5 = tail call i32 @hostlist_find_dims(ptr noundef nonnull %3, ptr noundef %1, i32 noundef 0)
  %6 = icmp sgt i32 %5, -1
  br i1 %6, label %7, label %9

7:                                                ; preds = %4
  %8 = tail call i32 @hostlist_delete_nth(ptr noundef nonnull %3, i32 noundef %5)
  br label %9

9:                                                ; preds = %7, %4
  %10 = zext i1 %6 to i32
  br label %hostlist_delete_host.exit

hostlist_delete_host.exit:                        ; preds = %2, %9
  %.0.i = phi i32 [ %10, %9 ], [ -1, %2 ]
  ret i32 %.0.i
}